; Function Attrs: mustprogress nounwind uwtable
define hidden void @_ZN12ConstantPool12klass_at_putEiP5Klass(ptr nocapture noundef nonnull readonly align 8 dereferenceable(68) %0, i32 noundef %1, ptr noundef %2) local_unnamed_addr #0 align 2 {
  %4 = getelementptr inbounds i8, ptr %0, i64 72
  %5 = sext i32 %1 to i64
  %6 = getelementptr inbounds i64, ptr %4, i64 %5
  %7 = load i32, ptr %6, align 8
  %8 = and i32 %7, 65535
  %9 = getelementptr inbounds i8, ptr %0, i64 40
  %10 = load ptr, ptr %9, align 8
  %11 = getelementptr inbounds i8, ptr %10, i64 8
  %12 = zext nneg i32 %8 to i64
  %13 = getelementptr inbounds ptr, ptr %11, i64 %12
  tail call void asm sideeffect "", "~{memory},~{dirflag},~{fpsr},~{flags}"() #17, !srcloc !6
  store volatile ptr %2, ptr %13, align 8
  %14 = getelementptr inbounds i8, ptr %0, i64 8
  %15 = load ptr, ptr %14, align 8
  %16 = getelementptr inbounds i8, ptr %15, i64 4
  %17 = getelementptr inbounds i8, ptr %16, i64 %5
  tail call void asm sideeffect "", "~{memory},~{dirflag},~{fpsr},~{flags}"() #17, !srcloc !6
  store volatile i8 7, ptr %17, align 1
  ret void
}